target datalayout = "e-m:e-p270:32:32-p271:32:32-p272:64:64-i64:64-i128:128-f80:128-n8:16:32:64-S128"
target triple = "x86_64-unknown-linux-gnu"

%struct.atomic_zd_t = type { i64 }

@dirty_decay_ms_default = internal global %struct.atomic_zd_t zeroinitializer, align 8

; Function Attrs: nounwind uwtable
define hidden zeroext i1 @arena_dirty_decay_ms_default_set(i64 noundef %decay_ms) #0 {
entry:
  %retval.i = alloca i32, align 4
  %mo.addr.i1 = alloca i32, align 4
  %a.addr.i = alloca ptr, align 8
  %val.addr.i = alloca i64, align 8
  %mo.addr.i = alloca i32, align 4
  %retval = alloca i1, align 1
  %decay_ms.addr = alloca i64, align 8
  store i64 %decay_ms, ptr %decay_ms.addr, align 8
  %0 = load i64, ptr %decay_ms.addr, align 8
  %call = call zeroext i1 @decay_ms_valid(i64 noundef %0)
  br i1 %call, label %if.end, label %if.then

if.then:                                          ; preds = %entry
  store i1 true, ptr %retval, align 1
  br label %return

if.end:                                           ; preds = %entry
  %1 = load i64, ptr %decay_ms.addr, align 8
  store ptr @dirty_decay_ms_default, ptr %a.addr.i, align 8
  store i64 %1, ptr %val.addr.i, align 8
  store i32 0, ptr %mo.addr.i, align 4
  %2 = load ptr, ptr %a.addr.i, align 8
  %3 = load i32, ptr %mo.addr.i, align 4
  store i32 %3, ptr %mo.addr.i1, align 4
  %4 = load i32, ptr %mo.addr.i1, align 4
  switch i32 %4, label %sw.epilog.i [
    i32 0, label %sw.bb.i
    i32 1, label %sw.bb1.i
    i32 2, label %sw.bb2.i
    i32 3, label %sw.bb3.i
    i32 4, label %sw.bb4.i
  ]

sw.bb.i:                                          ; preds = %if.end
  store i32 0, ptr %retval.i, align 4
  br label %atomic_enum_to_builtin.exit

sw.bb1.i:                                         ; preds = %if.end
  store i32 2, ptr %retval.i, align 4
  br label %atomic_enum_to_builtin.exit

sw.bb2.i:                                         ; preds = %if.end
  store i32 3, ptr %retval.i, align 4
  br label %atomic_enum_to_builtin.exit

sw.bb3.i:                                         ; preds = %if.end
  store i32 4, ptr %retval.i, align 4
  br label %atomic_enum_to_builtin.exit

sw.bb4.i:                                         ; preds = %if.end
  store i32 5, ptr %retval.i, align 4
  br label %atomic_enum_to_builtin.exit

sw.epilog.i:                                      ; preds = %if.end
  unreachable

atomic_enum_to_builtin.exit:                      ; preds = %sw.bb4.i, %sw.bb3.i, %sw.bb2.i, %sw.bb1.i, %sw.bb.i
  %5 = load i32, ptr %retval.i, align 4
  switch i32 %5, label %monotonic.i [
    i32 3, label %release.i
    i32 5, label %seqcst.i
  ]

monotonic.i:                                      ; preds = %atomic_enum_to_builtin.exit
  %6 = load i64, ptr %val.addr.i, align 8
  store atomic i64 %6, ptr %2 monotonic, align 8
  br label %atomic_store_zd.exit

release.i:                                        ; preds = %atomic_enum_to_builtin.exit
  %7 = load i64, ptr %val.addr.i, align 8
  store atomic i64 %7, ptr %2 release, align 8
  br label %atomic_store_zd.exit

seqcst.i:                                         ; preds = %atomic_enum_to_builtin.exit
  %8 = load i64, ptr %val.addr.i, align 8
  store atomic i64 %8, ptr %2 seq_cst, align 8
  br label %atomic_store_zd.exit

atomic_store_zd.exit:                             ; preds = %seqcst.i, %release.i, %monotonic.i
  store i1 false, ptr %retval, align 1
  br label %return

return:                                           ; preds = %atomic_store_zd.exit, %if.then
  %9 = load i1, ptr %retval, align 1
  ret i1 %9
}